target datalayout = "e-m:e-p270:32:32-p271:32:32-p272:64:64-i64:64-i128:128-f80:128-n8:16:32:64-S128"
target triple = "x86_64-pc-linux-gnu"

%"class.zxing::qrcode::FinderPattern" = type { %"class.zxing::ResultPoint.base", float, i32, float, i32, i32 }
%"class.zxing::ResultPoint.base" = type { %"class.zxing::Counted.base", float, float }
%"class.zxing::Counted.base" = type <{ ptr, i32 }>

; Function Attrs: inlinehint mustprogress nounwind uwtable
define linkonce_odr noundef float @_ZSt3absf(float noundef %0) #3 comdat {
  %2 = alloca float, align 4
  store float %0, ptr %2, align 4, !tbaa !8
  %3 = load float, ptr %2, align 4, !tbaa !8
  %4 = call float @llvm.fabs.f32(float %3)
  ret float %4
}

; Function Attrs: mustprogress uwtable
define hidden noundef zeroext i1 @_ZNK5zxing6qrcode13FinderPattern11aboutEqualsEfff(ptr noundef nonnull align 8 dereferenceable(40) %0, float noundef %1, float noundef %2, float noundef %3) #0 align 2 {
  %5 = alloca i1, align 1
  %6 = alloca ptr, align 8
  %7 = alloca float, align 4
  %8 = alloca float, align 4
  %9 = alloca float, align 4
  %10 = alloca float, align 4
  store ptr %0, ptr %6, align 8, !tbaa !3
  store float %1, ptr %7, align 4, !tbaa !8
  store float %2, ptr %8, align 4, !tbaa !8
  store float %3, ptr %9, align 4, !tbaa !8
  %11 = load ptr, ptr %6, align 8
  %12 = load float, ptr %8, align 4, !tbaa !8
  %13 = load ptr, ptr %11, align 8, !tbaa !10
  %14 = getelementptr inbounds ptr, ptr %13, i64 3
  %15 = load ptr, ptr %14, align 8
  %16 = call noundef float %15(ptr noundef nonnull align 8 dereferenceable(20) %11)
  %17 = fsub float %12, %16
  %18 = call noundef float @_ZSt3absf(float noundef %17)
  %19 = load float, ptr %7, align 4, !tbaa !8
  %20 = fcmp ole float %18, %19
  br i1 %20, label %21, label %46

21:                                               ; preds = %4
  %22 = load float, ptr %9, align 4, !tbaa !8
  %23 = load ptr, ptr %11, align 8, !tbaa !10
  %24 = getelementptr inbounds ptr, ptr %23, i64 2
  %25 = load ptr, ptr %24, align 8
  %26 = call noundef float %25(ptr noundef nonnull align 8 dereferenceable(20) %11)
  %27 = fsub float %22, %26
  %28 = call noundef float @_ZSt3absf(float noundef %27)
  %29 = load float, ptr %7, align 4, !tbaa !8
  %30 = fcmp ole float %28, %29
  br i1 %30, label %31, label %46

31:                                               ; preds = %21
  call void @llvm.lifetime.start.p0(i64 4, ptr %10) #9
  %32 = load float, ptr %7, align 4, !tbaa !8
  %33 = getelementptr inbounds nuw %"class.zxing::qrcode::FinderPattern", ptr %11, i32 0, i32 1
  %34 = load float, ptr %33, align 4, !tbaa !12
  %35 = fsub float %32, %34
  %36 = call noundef float @_ZSt3absf(float noundef %35)
  store float %36, ptr %10, align 4, !tbaa !8
  %37 = load float, ptr %10, align 4, !tbaa !8
  %38 = fcmp ole float %37, 1.000000e+00
  br i1 %38, label %44, label %39

39:                                               ; preds = %31
  %40 = load float, ptr %10, align 4, !tbaa !8
  %41 = getelementptr inbounds nuw %"class.zxing::qrcode::FinderPattern", ptr %11, i32 0, i32 1
  %42 = load float, ptr %41, align 4, !tbaa !12
  %43 = fcmp ole float %40, %42
  br label %44

44:                                               ; preds = %39, %31
  %45 = phi i1 [ true, %31 ], [ %43, %39 ]
  store i1 %45, ptr %5, align 1
  call void @llvm.lifetime.end.p0(i64 4, ptr %10) #9
  br label %47

46:                                               ; preds = %21, %4
  store i1 false, ptr %5, align 1
  br label %47

47:                                               ; preds = %46, %44
  %48 = load i1, ptr %5, align 1
  ret i1 %48
}