; Function Attrs: mustprogress uwtable
define hidden noundef zeroext i1 @_ZNK5zxing6qrcode13FinderPattern11aboutEqualsEfff(ptr noundef nonnull align 8 dereferenceable(40) %0, float noundef %1, float noundef %2, float noundef %3) local_unnamed_addr #0 align 2 {
  %5 = load ptr, ptr %0, align 8, !tbaa !3
  %6 = getelementptr inbounds nuw i8, ptr %5, i64 24
  %7 = load ptr, ptr %6, align 8
  %8 = tail call noundef float %7(ptr noundef nonnull align 8 dereferenceable(20) %0)
  %9 = fsub float %2, %8
  %10 = tail call noundef float @llvm.fabs.f32(float %9)
  %11 = fcmp ugt float %10, %1
  br i1 %11, label %28, label %12

12:                                               ; preds = %4
  %13 = load ptr, ptr %0, align 8, !tbaa !3
  %14 = getelementptr inbounds nuw i8, ptr %13, i64 16
  %15 = load ptr, ptr %14, align 8
  %16 = tail call noundef float %15(ptr noundef nonnull align 8 dereferenceable(20) %0)
  %17 = fsub float %3, %16
  %18 = tail call noundef float @llvm.fabs.f32(float %17)
  %19 = fcmp ugt float %18, %1
  br i1 %19, label %28, label %20

20:                                               ; preds = %12
  %21 = getelementptr inbounds nuw i8, ptr %0, i64 20
  %22 = load float, ptr %21, align 4, !tbaa !6
  %23 = fsub float %1, %22
  %24 = tail call noundef float @llvm.fabs.f32(float %23)
  %25 = fcmp ole float %24, 1.000000e+00
  %26 = fcmp ole float %24, %22
  %27 = select i1 %25, i1 true, i1 %26
  br label %28

28:                                               ; preds = %4, %12, %20
  %.0 = phi i1 [ %27, %20 ], [ false, %12 ], [ false, %4 ]
  ret i1 %.0
}